target datalayout = "e-m:e-p270:32:32-p271:32:32-p272:64:64-i64:64-i128:128-f80:128-n8:16:32:64-S128"
target triple = "x86_64-pc-linux-gnu"

%struct.Io_BlifMan_t_ = type { ptr, ptr, ptr, ptr, i32, i32, ptr, ptr, ptr, ptr, ptr, ptr, ptr, ptr, ptr, ptr, i32, ptr, ptr, [512 x i8], i32, i32 }
%struct.Vec_Ptr_t_ = type { i32, i32, ptr }

; Function Attrs: inlinehint nounwind uwtable
define internal void @Vec_PtrFree(ptr noundef %0) #6 {
  %2 = alloca ptr, align 8
  store ptr %0, ptr %2, align 8, !tbaa !49
  %3 = load ptr, ptr %2, align 8, !tbaa !49
  %4 = getelementptr inbounds nuw %struct.Vec_Ptr_t_, ptr %3, i32 0, i32 2
  %5 = load ptr, ptr %4, align 8, !tbaa !53
  %6 = icmp ne ptr %5, null
  br i1 %6, label %7, label %13

7:                                                ; preds = %1
  %8 = load ptr, ptr %2, align 8, !tbaa !49
  %9 = getelementptr inbounds nuw %struct.Vec_Ptr_t_, ptr %8, i32 0, i32 2
  %10 = load ptr, ptr %9, align 8, !tbaa !53
  call void @free(ptr noundef %10) #10
  %11 = load ptr, ptr %2, align 8, !tbaa !49
  %12 = getelementptr inbounds nuw %struct.Vec_Ptr_t_, ptr %11, i32 0, i32 2
  store ptr null, ptr %12, align 8, !tbaa !53
  br label %14

13:                                               ; preds = %1
  br label %14

14:                                               ; preds = %13, %7
  %15 = load ptr, ptr %2, align 8, !tbaa !49
  %16 = icmp ne ptr %15, null
  br i1 %16, label %17, label %19

17:                                               ; preds = %14
  %18 = load ptr, ptr %2, align 8, !tbaa !49
  call void @free(ptr noundef %18) #10
  store ptr null, ptr %2, align 8, !tbaa !49
  br label %20

19:                                               ; preds = %14
  br label %20

20:                                               ; preds = %19, %17
  ret void
}

; Function Attrs: nounwind uwtable
define internal void @Io_BlifFree(ptr noundef %0) #0 {
  %2 = alloca ptr, align 8
  store ptr %0, ptr %2, align 8, !tbaa !12
  %3 = load ptr, ptr %2, align 8, !tbaa !12
  %4 = getelementptr inbounds nuw %struct.Io_BlifMan_t_, ptr %3, i32 0, i32 17
  %5 = load ptr, ptr %4, align 8, !tbaa !23
  %6 = icmp ne ptr %5, null
  br i1 %6, label %7, label %11

7:                                                ; preds = %1
  %8 = load ptr, ptr %2, align 8, !tbaa !12
  %9 = getelementptr inbounds nuw %struct.Io_BlifMan_t_, ptr %8, i32 0, i32 17
  %10 = load ptr, ptr %9, align 8, !tbaa !23
  call void @Abc_NtkDelete(ptr noundef %10)
  br label %11

11:                                               ; preds = %7, %1
  %12 = load ptr, ptr %2, align 8, !tbaa !12
  %13 = getelementptr inbounds nuw %struct.Io_BlifMan_t_, ptr %12, i32 0, i32 1
  %14 = load ptr, ptr %13, align 8, !tbaa !20
  %15 = icmp ne ptr %14, null
  br i1 %15, label %16, label %29

16:                                               ; preds = %11
  %17 = load ptr, ptr %2, align 8, !tbaa !12
  %18 = getelementptr inbounds nuw %struct.Io_BlifMan_t_, ptr %17, i32 0, i32 1
  %19 = load ptr, ptr %18, align 8, !tbaa !20
  %20 = icmp ne ptr %19, null
  br i1 %20, label %21, label %27

21:                                               ; preds = %16
  %22 = load ptr, ptr %2, align 8, !tbaa !12
  %23 = getelementptr inbounds nuw %struct.Io_BlifMan_t_, ptr %22, i32 0, i32 1
  %24 = load ptr, ptr %23, align 8, !tbaa !20
  call void @free(ptr noundef %24) #10
  %25 = load ptr, ptr %2, align 8, !tbaa !12
  %26 = getelementptr inbounds nuw %struct.Io_BlifMan_t_, ptr %25, i32 0, i32 1
  store ptr null, ptr %26, align 8, !tbaa !20
  br label %28

27:                                               ; preds = %16
  br label %28

28:                                               ; preds = %27, %21
  br label %29

29:                                               ; preds = %28, %11
  %30 = load ptr, ptr %2, align 8, !tbaa !12
  %31 = getelementptr inbounds nuw %struct.Io_BlifMan_t_, ptr %30, i32 0, i32 3
  %32 = load ptr, ptr %31, align 8, !tbaa !24
  %33 = icmp ne ptr %32, null
  br i1 %33, label %34, label %47

34:                                               ; preds = %29
  %35 = load ptr, ptr %2, align 8, !tbaa !12
  %36 = getelementptr inbounds nuw %struct.Io_BlifMan_t_, ptr %35, i32 0, i32 3
  %37 = load ptr, ptr %36, align 8, !tbaa !24
  %38 = icmp ne ptr %37, null
  br i1 %38, label %39, label %45

39:                                               ; preds = %34
  %40 = load ptr, ptr %2, align 8, !tbaa !12
  %41 = getelementptr inbounds nuw %struct.Io_BlifMan_t_, ptr %40, i32 0, i32 3
  %42 = load ptr, ptr %41, align 8, !tbaa !24
  call void @free(ptr noundef %42) #10
  %43 = load ptr, ptr %2, align 8, !tbaa !12
  %44 = getelementptr inbounds nuw %struct.Io_BlifMan_t_, ptr %43, i32 0, i32 3
  store ptr null, ptr %44, align 8, !tbaa !24
  br label %46

45:                                               ; preds = %34
  br label %46

46:                                               ; preds = %45, %39
  br label %47

47:                                               ; preds = %46, %29
  %48 = load ptr, ptr %2, align 8, !tbaa !12
  %49 = getelementptr inbounds nuw %struct.Io_BlifMan_t_, ptr %48, i32 0, i32 15
  %50 = load ptr, ptr %49, align 8, !tbaa !25
  %51 = icmp ne ptr %50, null
  br i1 %51, label %52, label %65

52:                                               ; preds = %47
  %53 = load ptr, ptr %2, align 8, !tbaa !12
  %54 = getelementptr inbounds nuw %struct.Io_BlifMan_t_, ptr %53, i32 0, i32 15
  %55 = load ptr, ptr %54, align 8, !tbaa !25
  %56 = icmp ne ptr %55, null
  br i1 %56, label %57, label %63

57:                                               ; preds = %52
  %58 = load ptr, ptr %2, align 8, !tbaa !12
  %59 = getelementptr inbounds nuw %struct.Io_BlifMan_t_, ptr %58, i32 0, i32 15
  %60 = load ptr, ptr %59, align 8, !tbaa !25
  call void @free(ptr noundef %60) #10
  %61 = load ptr, ptr %2, align 8, !tbaa !12
  %62 = getelementptr inbounds nuw %struct.Io_BlifMan_t_, ptr %61, i32 0, i32 15
  store ptr null, ptr %62, align 8, !tbaa !25
  br label %64

63:                                               ; preds = %52
  br label %64

64:                                               ; preds = %63, %57
  br label %65

65:                                               ; preds = %64, %47
  %66 = load ptr, ptr %2, align 8, !tbaa !12
  %67 = getelementptr inbounds nuw %struct.Io_BlifMan_t_, ptr %66, i32 0, i32 2
  %68 = load ptr, ptr %67, align 8, !tbaa !26
  call void @Vec_PtrFree(ptr noundef %68)
  %69 = load ptr, ptr %2, align 8, !tbaa !12
  %70 = getelementptr inbounds nuw %struct.Io_BlifMan_t_, ptr %69, i32 0, i32 7
  %71 = load ptr, ptr %70, align 8, !tbaa !27
  call void @Vec_PtrFree(ptr noundef %71)
  %72 = load ptr, ptr %2, align 8, !tbaa !12
  %73 = getelementptr inbounds nuw %struct.Io_BlifMan_t_, ptr %72, i32 0, i32 8
  %74 = load ptr, ptr %73, align 8, !tbaa !28
  call void @Vec_PtrFree(ptr noundef %74)
  %75 = load ptr, ptr %2, align 8, !tbaa !12
  %76 = getelementptr inbounds nuw %struct.Io_BlifMan_t_, ptr %75, i32 0, i32 9
  %77 = load ptr, ptr %76, align 8, !tbaa !29
  call void @Vec_PtrFree(ptr noundef %77)
  %78 = load ptr, ptr %2, align 8, !tbaa !12
  %79 = getelementptr inbounds nuw %struct.Io_BlifMan_t_, ptr %78, i32 0, i32 10
  %80 = load ptr, ptr %79, align 8, !tbaa !30
  call void @Vec_PtrFree(ptr noundef %80)
  %81 = load ptr, ptr %2, align 8, !tbaa !12
  %82 = getelementptr inbounds nuw %struct.Io_BlifMan_t_, ptr %81, i32 0, i32 18
  %83 = load ptr, ptr %82, align 8, !tbaa !31
  call void @Vec_PtrFree(ptr noundef %83)
  %84 = load ptr, ptr %2, align 8, !tbaa !12
  %85 = getelementptr inbounds nuw %struct.Io_BlifMan_t_, ptr %84, i32 0, i32 11
  %86 = load ptr, ptr %85, align 8, !tbaa !32
  call void @Vec_PtrFree(ptr noundef %86)
  %87 = load ptr, ptr %2, align 8, !tbaa !12
  %88 = getelementptr inbounds nuw %struct.Io_BlifMan_t_, ptr %87, i32 0, i32 12
  %89 = load ptr, ptr %88, align 8, !tbaa !33
  call void @Vec_PtrFree(ptr noundef %89)
  %90 = load ptr, ptr %2, align 8, !tbaa !12
  %91 = getelementptr inbounds nuw %struct.Io_BlifMan_t_, ptr %90, i32 0, i32 13
  %92 = load ptr, ptr %91, align 8, !tbaa !34
  call void @Vec_PtrFree(ptr noundef %92)
  %93 = load ptr, ptr %2, align 8, !tbaa !12
  %94 = getelementptr inbounds nuw %struct.Io_BlifMan_t_, ptr %93, i32 0, i32 14
  %95 = load ptr, ptr %94, align 8, !tbaa !35
  call void @Vec_PtrFree(ptr noundef %95)
  %96 = load ptr, ptr %2, align 8, !tbaa !12
  %97 = icmp ne ptr %96, null
  br i1 %97, label %98, label %100

98:                                               ; preds = %65
  %99 = load ptr, ptr %2, align 8, !tbaa !12
  call void @free(ptr noundef %99) #10
  store ptr null, ptr %2, align 8, !tbaa !12
  br label %101

100:                                              ; preds = %65
  br label %101

101:                                              ; preds = %100, %98
  ret void
}