; Function Attrs: nounwind uwtable
define internal fastcc void @Io_BlifFree(ptr noundef captures(none) %0) unnamed_addr #0 {
  %2 = getelementptr inbounds nuw i8, ptr %0, i64 128
  %3 = load ptr, ptr %2, align 8, !tbaa !60
  %.not = icmp eq ptr %3, null
  br i1 %.not, label %5, label %4

4:                                                ; preds = %1
  tail call void @Abc_NtkDelete(ptr noundef nonnull %3) #12
  br label %5

5:                                                ; preds = %4, %1
  %6 = getelementptr inbounds nuw i8, ptr %0, i64 8
  %7 = load ptr, ptr %6, align 8, !tbaa !28
  %.not30 = icmp eq ptr %7, null
  br i1 %.not30, label %9, label %8

8:                                                ; preds = %5
  tail call void @free(ptr noundef nonnull %7) #12
  store ptr null, ptr %6, align 8, !tbaa !28
  br label %9

9:                                                ; preds = %8, %5
  %10 = getelementptr inbounds nuw i8, ptr %0, i64 24
  %11 = load ptr, ptr %10, align 8, !tbaa !43
  %.not31 = icmp eq ptr %11, null
  br i1 %.not31, label %13, label %12

12:                                               ; preds = %9
  tail call void @free(ptr noundef nonnull %11) #12
  store ptr null, ptr %10, align 8, !tbaa !43
  br label %13

13:                                               ; preds = %12, %9
  %14 = getelementptr inbounds nuw i8, ptr %0, i64 112
  %15 = load ptr, ptr %14, align 8, !tbaa !45
  %.not32 = icmp eq ptr %15, null
  br i1 %.not32, label %17, label %16

16:                                               ; preds = %13
  tail call void @free(ptr noundef nonnull %15) #12
  store ptr null, ptr %14, align 8, !tbaa !45
  br label %17

17:                                               ; preds = %16, %13
  %18 = getelementptr inbounds nuw i8, ptr %0, i64 16
  %19 = load ptr, ptr %18, align 8, !tbaa !11
  %20 = getelementptr inbounds nuw i8, ptr %19, i64 8
  %21 = load ptr, ptr %20, align 8, !tbaa !10
  %.not.i = icmp eq ptr %21, null
  br i1 %.not.i, label %Vec_PtrFree.exit, label %22

22:                                               ; preds = %17
  tail call void @free(ptr noundef nonnull %21) #12
  br label %Vec_PtrFree.exit

Vec_PtrFree.exit:                                 ; preds = %17, %22
  tail call void @free(ptr noundef nonnull %19) #12
  %23 = getelementptr inbounds nuw i8, ptr %0, i64 48
  %24 = load ptr, ptr %23, align 8, !tbaa !18
  %25 = getelementptr inbounds nuw i8, ptr %24, i64 8
  %26 = load ptr, ptr %25, align 8, !tbaa !10
  %.not.i34 = icmp eq ptr %26, null
  br i1 %.not.i34, label %Vec_PtrFree.exit35, label %27

27:                                               ; preds = %Vec_PtrFree.exit
  tail call void @free(ptr noundef nonnull %26) #12
  br label %Vec_PtrFree.exit35

Vec_PtrFree.exit35:                               ; preds = %Vec_PtrFree.exit, %27
  tail call void @free(ptr noundef nonnull %24) #12
  %28 = getelementptr inbounds nuw i8, ptr %0, i64 56
  %29 = load ptr, ptr %28, align 8, !tbaa !19
  %30 = getelementptr inbounds nuw i8, ptr %29, i64 8
  %31 = load ptr, ptr %30, align 8, !tbaa !10
  %.not.i36 = icmp eq ptr %31, null
  br i1 %.not.i36, label %Vec_PtrFree.exit37, label %32

32:                                               ; preds = %Vec_PtrFree.exit35
  tail call void @free(ptr noundef nonnull %31) #12
  br label %Vec_PtrFree.exit37

Vec_PtrFree.exit37:                               ; preds = %Vec_PtrFree.exit35, %32
  tail call void @free(ptr noundef nonnull %29) #12
  %33 = getelementptr inbounds nuw i8, ptr %0, i64 64
  %34 = load ptr, ptr %33, align 8, !tbaa !20
  %35 = getelementptr inbounds nuw i8, ptr %34, i64 8
  %36 = load ptr, ptr %35, align 8, !tbaa !10
  %.not.i38 = icmp eq ptr %36, null
  br i1 %.not.i38, label %Vec_PtrFree.exit39, label %37

37:                                               ; preds = %Vec_PtrFree.exit37
  tail call void @free(ptr noundef nonnull %36) #12
  br label %Vec_PtrFree.exit39

Vec_PtrFree.exit39:                               ; preds = %Vec_PtrFree.exit37, %37
  tail call void @free(ptr noundef nonnull %34) #12
  %38 = getelementptr inbounds nuw i8, ptr %0, i64 72
  %39 = load ptr, ptr %38, align 8, !tbaa !21
  %40 = getelementptr inbounds nuw i8, ptr %39, i64 8
  %41 = load ptr, ptr %40, align 8, !tbaa !10
  %.not.i40 = icmp eq ptr %41, null
  br i1 %.not.i40, label %Vec_PtrFree.exit41, label %42

42:                                               ; preds = %Vec_PtrFree.exit39
  tail call void @free(ptr noundef nonnull %41) #12
  br label %Vec_PtrFree.exit41

Vec_PtrFree.exit41:                               ; preds = %Vec_PtrFree.exit39, %42
  tail call void @free(ptr noundef nonnull %39) #12
  %43 = getelementptr inbounds nuw i8, ptr %0, i64 136
  %44 = load ptr, ptr %43, align 8, !tbaa !22
  %45 = getelementptr inbounds nuw i8, ptr %44, i64 8
  %46 = load ptr, ptr %45, align 8, !tbaa !10
  %.not.i42 = icmp eq ptr %46, null
  br i1 %.not.i42, label %Vec_PtrFree.exit43, label %47

47:                                               ; preds = %Vec_PtrFree.exit41
  tail call void @free(ptr noundef nonnull %46) #12
  br label %Vec_PtrFree.exit43

Vec_PtrFree.exit43:                               ; preds = %Vec_PtrFree.exit41, %47
  tail call void @free(ptr noundef nonnull %44) #12
  %48 = getelementptr inbounds nuw i8, ptr %0, i64 80
  %49 = load ptr, ptr %48, align 8, !tbaa !23
  %50 = getelementptr inbounds nuw i8, ptr %49, i64 8
  %51 = load ptr, ptr %50, align 8, !tbaa !10
  %.not.i44 = icmp eq ptr %51, null
  br i1 %.not.i44, label %Vec_PtrFree.exit45, label %52

52:                                               ; preds = %Vec_PtrFree.exit43
  tail call void @free(ptr noundef nonnull %51) #12
  br label %Vec_PtrFree.exit45

Vec_PtrFree.exit45:                               ; preds = %Vec_PtrFree.exit43, %52
  tail call void @free(ptr noundef nonnull %49) #12
  %53 = getelementptr inbounds nuw i8, ptr %0, i64 88
  %54 = load ptr, ptr %53, align 8, !tbaa !24
  %55 = getelementptr inbounds nuw i8, ptr %54, i64 8
  %56 = load ptr, ptr %55, align 8, !tbaa !10
  %.not.i46 = icmp eq ptr %56, null
  br i1 %.not.i46, label %Vec_PtrFree.exit47, label %57

57:                                               ; preds = %Vec_PtrFree.exit45
  tail call void @free(ptr noundef nonnull %56) #12
  br label %Vec_PtrFree.exit47

Vec_PtrFree.exit47:                               ; preds = %Vec_PtrFree.exit45, %57
  tail call void @free(ptr noundef nonnull %54) #12
  %58 = getelementptr inbounds nuw i8, ptr %0, i64 96
  %59 = load ptr, ptr %58, align 8, !tbaa !25
  %60 = getelementptr inbounds nuw i8, ptr %59, i64 8
  %61 = load ptr, ptr %60, align 8, !tbaa !10
  %.not.i48 = icmp eq ptr %61, null
  br i1 %.not.i48, label %Vec_PtrFree.exit49, label %62

62:                                               ; preds = %Vec_PtrFree.exit47
  tail call void @free(ptr noundef nonnull %61) #12
  br label %Vec_PtrFree.exit49

Vec_PtrFree.exit49:                               ; preds = %Vec_PtrFree.exit47, %62
  tail call void @free(ptr noundef nonnull %59) #12
  %63 = getelementptr inbounds nuw i8, ptr %0, i64 104
  %64 = load ptr, ptr %63, align 8, !tbaa !26
  %65 = getelementptr inbounds nuw i8, ptr %64, i64 8
  %66 = load ptr, ptr %65, align 8, !tbaa !10
  %.not.i50 = icmp eq ptr %66, null
  br i1 %.not.i50, label %68, label %67

67:                                               ; preds = %Vec_PtrFree.exit49
  tail call void @free(ptr noundef nonnull %66) #12
  br label %68

68:                                               ; preds = %Vec_PtrFree.exit49, %67
  tail call void @free(ptr noundef nonnull %64) #12
  tail call void @free(ptr noundef nonnull %0) #12
  ret void
}